; Function Attrs: mustprogress uwtable
define internal void @_ZN7rocksdb12_GLOBAL__N_119CountedRandomRWFile5WriteEmRKNS_5SliceERKNS_9IOOptionsEPNS_14IODebugContextE(ptr dead_on_unwind noalias writable sret(%"class.rocksdb::IOStatus") align 8 %0, ptr noundef nonnull readonly align 8 captures(none) dereferenceable(32) %1, i64 noundef %2, ptr noundef nonnull align 8 dereferenceable(16) %3, ptr noundef nonnull align 8 dereferenceable(84) %4, ptr noundef %5) unnamed_addr #0 align 2 personality ptr @__gxx_personality_v0 {
  %7 = getelementptr inbounds nuw i8, ptr %1, i64 8
  %8 = load ptr, ptr %7, align 8, !tbaa !127
  %9 = load ptr, ptr %8, align 8, !tbaa !4
  %10 = getelementptr inbounds nuw i8, ptr %9, i64 32
  %11 = load ptr, ptr %10, align 8
  tail call void %11(ptr dead_on_unwind writable sret(%"class.rocksdb::IOStatus") align 8 %0, ptr noundef nonnull align 8 dereferenceable(8) %8, i64 noundef %2, ptr noundef nonnull align 8 dereferenceable(16) %3, ptr noundef nonnull align 8 dereferenceable(84) %4, ptr noundef %5)
  %12 = getelementptr inbounds nuw i8, ptr %1, i64 24
  %13 = load ptr, ptr %12, align 8, !tbaa !131
  %14 = getelementptr inbounds nuw i8, ptr %3, i64 8
  %15 = load i64, ptr %14, align 8, !tbaa !168
  %16 = load i8, ptr %0, align 8, !tbaa !64
  %17 = icmp eq i8 %16, 3
  br i1 %17, label %_ZN7rocksdb9OpCounter8RecordOpERKNS_8IOStatusEm.exit, label %18

18:                                               ; preds = %6
  %19 = getelementptr inbounds nuw i8, ptr %13, i64 104
  %20 = atomicrmw add ptr %19, i32 1 monotonic, align 4
  %.pr.i = load i8, ptr %0, align 8, !tbaa !64
  %21 = icmp eq i8 %.pr.i, 0
  br i1 %21, label %22, label %_ZN7rocksdb9OpCounter8RecordOpERKNS_8IOStatusEm.exit

22:                                               ; preds = %18
  %23 = getelementptr inbounds nuw i8, ptr %13, i64 112
  %24 = atomicrmw add ptr %23, i64 %15 monotonic, align 8
  br label %_ZN7rocksdb9OpCounter8RecordOpERKNS_8IOStatusEm.exit

_ZN7rocksdb9OpCounter8RecordOpERKNS_8IOStatusEm.exit: ; preds = %22, %18, %6
  ret void
}